; Function Attrs: mustprogress uwtable
define noundef i32 @_ZNK9benchmark8internal9Benchmark11GetTimeUnitEv(ptr noundef nonnull readonly align 8 captures(none) dereferenceable(224) %0) local_unnamed_addr #5 align 2 {
  %2 = getelementptr inbounds nuw i8, ptr %0, i64 100
  %3 = load i8, ptr %2, align 4, !tbaa !135, !range !72, !noundef !73
  %4 = trunc nuw i8 %3 to i1
  br i1 %4, label %5, label %7

5:                                                ; preds = %1
  %6 = tail call noundef i32 @_ZN9benchmark18GetDefaultTimeUnitEv()
  br label %10

7:                                                ; preds = %1
  %8 = getelementptr inbounds nuw i8, ptr %0, i64 96
  %9 = load i32, ptr %8, align 8, !tbaa !134
  br label %10

10:                                               ; preds = %7, %5
  %11 = phi i32 [ %6, %5 ], [ %9, %7 ]
  ret i32 %11
}